; ModuleID = '40/2981.c'
source_filename = "40/2981.c"
target datalayout = "e-m:e-p270:32:32-p271:32:32-p272:64:64-i64:64-f80:128-n8:16:32:64-S128"
target triple = "x86_64-pc-linux-gnu"

@.str = private unnamed_addr constant [3 x i8] c"%f\00", align 1
@.str.1 = private unnamed_addr constant [14 x i8] c"Invalid input\00", align 1
@.str.2 = private unnamed_addr constant [5 x i8] c"%.4f\00", align 1

; Function Attrs: noinline nounwind uwtable
define dso_local i32 @main() #0 {
  %1 = alloca i32, align 4
  %2 = alloca float, align 4
  %3 = alloca float, align 4
  %4 = alloca float, align 4
  %5 = alloca float, align 4
  %6 = alloca float, align 4
  %7 = alloca float, align 4
  %8 = alloca float, align 4
  store i32 0, i32* %1, align 4
  store float 0.000000e+00, float* %2, align 4
  store float 0.000000e+00, float* %3, align 4
  store float 0.000000e+00, float* %4, align 4
  store float 0.000000e+00, float* %5, align 4
  store float 1.800000e+02, float* %6, align 4
  %9 = call i32 (i8*, ...) @__isoc99_scanf(i8* getelementptr inbounds ([3 x i8], [3 x i8]* @.str, i64 0, i64 0), float* %2)
  %10 = call i32 (i8*, ...) @__isoc99_scanf(i8* getelementptr inbounds ([3 x i8], [3 x i8]* @.str, i64 0, i64 0), float* %3)
  %11 = call i32 (i8*, ...) @__isoc99_scanf(i8* getelementptr inbounds ([3 x i8], [3 x i8]* @.str, i64 0, i64 0), float* %4)
  %12 = call i32 (i8*, ...) @__isoc99_scanf(i8* getelementptr inbounds ([3 x i8], [3 x i8]* @.str, i64 0, i64 0), float* %5)
  %13 = call i32 (i8*, ...) @__isoc99_scanf(i8* getelementptr inbounds ([3 x i8], [3 x i8]* @.str, i64 0, i64 0), float* %6)
  %14 = load float, float* %6, align 4
  %15 = fdiv float %14, 1.800000e+02
  %16 = fpext float %15 to double
  %17 = fmul double %16, 0x400921FB4D12D84A
  %18 = fptrunc double %17 to float
  store float %18, float* %6, align 4
  store float 0.000000e+00, float* %7, align 4
  %19 = load float, float* %2, align 4
  %20 = load float, float* %3, align 4
  %21 = fadd float %19, %20
  %22 = load float, float* %4, align 4
  %23 = fadd float %21, %22
  %24 = load float, float* %5, align 4
  %25 = fadd float %23, %24
  %26 = fdiv float %25, 2.000000e+00
  store float %26, float* %8, align 4
  %27 = load float, float* %8, align 4
  %28 = load float, float* %2, align 4
  %29 = fsub float %27, %28
  %30 = load float, float* %8, align 4
  %31 = load float, float* %3, align 4
  %32 = fsub float %30, %31
  %33 = fmul float %29, %32
  %34 = load float, float* %8, align 4
  %35 = load float, float* %4, align 4
  %36 = fsub float %34, %35
  %37 = fmul float %33, %36
  %38 = load float, float* %8, align 4
  %39 = load float, float* %5, align 4
  %40 = fsub float %38, %39
  %41 = fmul float %37, %40
  %42 = fpext float %41 to double
  %43 = load float, float* %2, align 4
  %44 = load float, float* %3, align 4
  %45 = fmul float %43, %44
  %46 = load float, float* %4, align 4
  %47 = fmul float %45, %46
  %48 = load float, float* %5, align 4
  %49 = fmul float %47, %48
  %50 = fpext float %49 to double
  %51 = load float, float* %6, align 4
  %52 = fpext float %51 to double
  %53 = fdiv double %52, 2.000000e+00
  %54 = call double @cos(double %53) #3
  %55 = fmul double %50, %54
  %56 = load float, float* %6, align 4
  %57 = fpext float %56 to double
  %58 = fdiv double %57, 2.000000e+00
  %59 = call double @cos(double %58) #3
  %60 = fmul double %55, %59
  %61 = fsub double %42, %60
  %62 = fcmp olt double %61, 0.000000e+00
  br i1 %62, label %63, label %65

63:                                               ; preds = %0
  %64 = call i32 (i8*, ...) @printf(i8* getelementptr inbounds ([14 x i8], [14 x i8]* @.str.1, i64 0, i64 0))
  br label %106

65:                                               ; preds = %0
  %66 = load float, float* %8, align 4
  %67 = load float, float* %2, align 4
  %68 = fsub float %66, %67
  %69 = load float, float* %8, align 4
  %70 = load float, float* %3, align 4
  %71 = fsub float %69, %70
  %72 = fmul float %68, %71
  %73 = load float, float* %8, align 4
  %74 = load float, float* %4, align 4
  %75 = fsub float %73, %74
  %76 = fmul float %72, %75
  %77 = load float, float* %8, align 4
  %78 = load float, float* %5, align 4
  %79 = fsub float %77, %78
  %80 = fmul float %76, %79
  %81 = fpext float %80 to double
  %82 = load float, float* %2, align 4
  %83 = load float, float* %3, align 4
  %84 = fmul float %82, %83
  %85 = load float, float* %4, align 4
  %86 = fmul float %84, %85
  %87 = load float, float* %5, align 4
  %88 = fmul float %86, %87
  %89 = fpext float %88 to double
  %90 = load float, float* %6, align 4
  %91 = fpext float %90 to double
  %92 = fdiv double %91, 2.000000e+00
  %93 = call double @cos(double %92) #3
  %94 = fmul double %89, %93
  %95 = load float, float* %6, align 4
  %96 = fpext float %95 to double
  %97 = fdiv double %96, 2.000000e+00
  %98 = call double @cos(double %97) #3
  %99 = fmul double %94, %98
  %100 = fsub double %81, %99
  %101 = call double @sqrt(double %100) #3
  %102 = fptrunc double %101 to float
  store float %102, float* %7, align 4
  %103 = load float, float* %7, align 4
  %104 = fpext float %103 to double
  %105 = call i32 (i8*, ...) @printf(i8* getelementptr inbounds ([5 x i8], [5 x i8]* @.str.2, i64 0, i64 0), double %104)
  br label %106

106:                                              ; preds = %65, %63
  ret i32 0
}

declare dso_local i32 @__isoc99_scanf(i8*, ...) #1

; Function Attrs: nounwind
declare dso_local double @cos(double) #2

declare dso_local i32 @printf(i8*, ...) #1

; Function Attrs: nounwind
declare dso_local double @sqrt(double) #2


!llvm.module.flags = !{!0}
!llvm.ident = !{!1}

!0 = !{i32 1, !"wchar_size", i32 4}
!1 = !{!"clang version 10.0.0-4ubuntu1 "}
